; ModuleID = '55/84.c'
source_filename = "55/84.c"
target datalayout = "e-m:e-p270:32:32-p271:32:32-p272:64:64-i64:64-f80:128-n8:16:32:64-S128"
target triple = "x86_64-pc-linux-gnu"

@.str = private unnamed_addr constant [3 x i8] c"0\0A\00", align 1
@.str.1 = private unnamed_addr constant [3 x i8] c"%c\00", align 1
@.str.2 = private unnamed_addr constant [4 x i8] c"%c\0A\00", align 1
@.str.3 = private unnamed_addr constant [9 x i8] c"%d %s %d\00", align 1

; Function Attrs: noinline nounwind uwtable
define dso_local i32 @zhuan(i32 %0, i8* %1) #0 {
  %3 = alloca i32, align 4
  %4 = alloca i8*, align 8
  %5 = alloca i64, align 8
  %6 = alloca i32, align 4
  %7 = alloca i32, align 4
  %8 = alloca i32, align 4
  store i32 %0, i32* %3, align 4
  store i8* %1, i8** %4, align 8
  store i64 0, i64* %5, align 8
  store i32 0, i32* %7, align 4
  br label %9

9:                                                ; preds = %114, %2
  %10 = load i8*, i8** %4, align 8
  %11 = load i32, i32* %7, align 4
  %12 = sext i32 %11 to i64
  %13 = getelementptr inbounds i8, i8* %10, i64 %12
  %14 = load i8, i8* %13, align 1
  %15 = sext i8 %14 to i32
  %16 = icmp ne i32 %15, 0
  br i1 %16, label %17, label %117

17:                                               ; preds = %9
  %18 = load i8*, i8** %4, align 8
  %19 = load i32, i32* %7, align 4
  %20 = sext i32 %19 to i64
  %21 = getelementptr inbounds i8, i8* %18, i64 %20
  %22 = load i8, i8* %21, align 1
  %23 = sext i8 %22 to i32
  %24 = icmp sge i32 %23, 48
  br i1 %24, label %25, label %41

25:                                               ; preds = %17
  %26 = load i8*, i8** %4, align 8
  %27 = load i32, i32* %7, align 4
  %28 = sext i32 %27 to i64
  %29 = getelementptr inbounds i8, i8* %26, i64 %28
  %30 = load i8, i8* %29, align 1
  %31 = sext i8 %30 to i32
  %32 = icmp sle i32 %31, 57
  br i1 %32, label %33, label %41

33:                                               ; preds = %25
  %34 = load i8*, i8** %4, align 8
  %35 = load i32, i32* %7, align 4
  %36 = sext i32 %35 to i64
  %37 = getelementptr inbounds i8, i8* %34, i64 %36
  %38 = load i8, i8* %37, align 1
  %39 = sext i8 %38 to i32
  %40 = sub nsw i32 %39, 48
  store i32 %40, i32* %6, align 4
  br label %91

41:                                               ; preds = %25, %17
  %42 = load i8*, i8** %4, align 8
  %43 = load i32, i32* %7, align 4
  %44 = sext i32 %43 to i64
  %45 = getelementptr inbounds i8, i8* %42, i64 %44
  %46 = load i8, i8* %45, align 1
  %47 = sext i8 %46 to i32
  %48 = icmp sle i32 %47, 90
  br i1 %48, label %49, label %65

49:                                               ; preds = %41
  %50 = load i8*, i8** %4, align 8
  %51 = load i32, i32* %7, align 4
  %52 = sext i32 %51 to i64
  %53 = getelementptr inbounds i8, i8* %50, i64 %52
  %54 = load i8, i8* %53, align 1
  %55 = sext i8 %54 to i32
  %56 = icmp sge i32 %55, 65
  br i1 %56, label %57, label %65

57:                                               ; preds = %49
  %58 = load i8*, i8** %4, align 8
  %59 = load i32, i32* %7, align 4
  %60 = sext i32 %59 to i64
  %61 = getelementptr inbounds i8, i8* %58, i64 %60
  %62 = load i8, i8* %61, align 1
  %63 = sext i8 %62 to i32
  %64 = sub nsw i32 %63, 55
  store i32 %64, i32* %6, align 4
  br label %90

65:                                               ; preds = %49, %41
  %66 = load i8*, i8** %4, align 8
  %67 = load i32, i32* %7, align 4
  %68 = sext i32 %67 to i64
  %69 = getelementptr inbounds i8, i8* %66, i64 %68
  %70 = load i8, i8* %69, align 1
  %71 = sext i8 %70 to i32
  %72 = icmp sge i32 %71, 97
  br i1 %72, label %73, label %89

73:                                               ; preds = %65
  %74 = load i8*, i8** %4, align 8
  %75 = load i32, i32* %7, align 4
  %76 = sext i32 %75 to i64
  %77 = getelementptr inbounds i8, i8* %74, i64 %76
  %78 = load i8, i8* %77, align 1
  %79 = sext i8 %78 to i32
  %80 = icmp sle i32 %79, 122
  br i1 %80, label %81, label %89

81:                                               ; preds = %73
  %82 = load i8*, i8** %4, align 8
  %83 = load i32, i32* %7, align 4
  %84 = sext i32 %83 to i64
  %85 = getelementptr inbounds i8, i8* %82, i64 %84
  %86 = load i8, i8* %85, align 1
  %87 = sext i8 %86 to i32
  %88 = sub nsw i32 %87, 87
  store i32 %88, i32* %6, align 4
  br label %89

89:                                               ; preds = %81, %73, %65
  br label %90

90:                                               ; preds = %89, %57
  br label %91

91:                                               ; preds = %90, %33
  %92 = load i32, i32* %7, align 4
  %93 = add nsw i32 %92, 1
  store i32 %93, i32* %8, align 4
  br label %94

94:                                               ; preds = %106, %91
  %95 = load i8*, i8** %4, align 8
  %96 = load i32, i32* %8, align 4
  %97 = sext i32 %96 to i64
  %98 = getelementptr inbounds i8, i8* %95, i64 %97
  %99 = load i8, i8* %98, align 1
  %100 = sext i8 %99 to i32
  %101 = icmp ne i32 %100, 0
  br i1 %101, label %102, label %109

102:                                              ; preds = %94
  %103 = load i32, i32* %6, align 4
  %104 = load i32, i32* %3, align 4
  %105 = mul nsw i32 %103, %104
  store i32 %105, i32* %6, align 4
  br label %106

106:                                              ; preds = %102
  %107 = load i32, i32* %8, align 4
  %108 = add nsw i32 %107, 1
  store i32 %108, i32* %8, align 4
  br label %94

109:                                              ; preds = %94
  %110 = load i64, i64* %5, align 8
  %111 = load i32, i32* %6, align 4
  %112 = sext i32 %111 to i64
  %113 = add nsw i64 %110, %112
  store i64 %113, i64* %5, align 8
  br label %114

114:                                              ; preds = %109
  %115 = load i32, i32* %7, align 4
  %116 = add nsw i32 %115, 1
  store i32 %116, i32* %7, align 4
  br label %9

117:                                              ; preds = %9
  %118 = load i64, i64* %5, align 8
  %119 = trunc i64 %118 to i32
  ret i32 %119
}

; Function Attrs: noinline nounwind uwtable
define dso_local void @huan(i32 %0, i64 %1) #0 {
  %3 = alloca i32, align 4
  %4 = alloca i64, align 8
  %5 = alloca i32, align 4
  %6 = alloca i32, align 4
  %7 = alloca i32, align 4
  %8 = alloca [100 x i8], align 16
  store i32 %0, i32* %3, align 4
  store i64 %1, i64* %4, align 8
  %9 = load i64, i64* %4, align 8
  %10 = icmp eq i64 %9, 0
  br i1 %10, label %11, label %13

11:                                               ; preds = %2
  %12 = call i32 (i8*, ...) @printf(i8* getelementptr inbounds ([3 x i8], [3 x i8]* @.str, i64 0, i64 0))
  br label %13

13:                                               ; preds = %11, %2
  store i32 0, i32* %6, align 4
  br label %14

14:                                               ; preds = %54, %13
  %15 = load i64, i64* %4, align 8
  %16 = icmp ne i64 %15, 0
  br i1 %16, label %17, label %57

17:                                               ; preds = %14
  %18 = load i64, i64* %4, align 8
  %19 = load i32, i32* %3, align 4
  %20 = sext i32 %19 to i64
  %21 = srem i64 %18, %20
  %22 = trunc i64 %21 to i32
  store i32 %22, i32* %5, align 4
  %23 = load i64, i64* %4, align 8
  %24 = load i32, i32* %3, align 4
  %25 = sext i32 %24 to i64
  %26 = sdiv i64 %23, %25
  store i64 %26, i64* %4, align 8
  %27 = load i32, i32* %5, align 4
  %28 = icmp sle i32 %27, 9
  br i1 %28, label %29, label %39

29:                                               ; preds = %17
  %30 = load i32, i32* %5, align 4
  %31 = icmp sge i32 %30, 0
  br i1 %31, label %32, label %39

32:                                               ; preds = %29
  %33 = load i32, i32* %5, align 4
  %34 = add nsw i32 %33, 48
  %35 = trunc i32 %34 to i8
  %36 = load i32, i32* %6, align 4
  %37 = sext i32 %36 to i64
  %38 = getelementptr inbounds [100 x i8], [100 x i8]* %8, i64 0, i64 %37
  store i8 %35, i8* %38, align 1
  br label %53

39:                                               ; preds = %29, %17
  %40 = load i32, i32* %5, align 4
  %41 = icmp sge i32 %40, 10
  br i1 %41, label %42, label %52

42:                                               ; preds = %39
  %43 = load i32, i32* %5, align 4
  %44 = icmp sle i32 %43, 35
  br i1 %44, label %45, label %52

45:                                               ; preds = %42
  %46 = load i32, i32* %5, align 4
  %47 = add nsw i32 %46, 55
  %48 = trunc i32 %47 to i8
  %49 = load i32, i32* %6, align 4
  %50 = sext i32 %49 to i64
  %51 = getelementptr inbounds [100 x i8], [100 x i8]* %8, i64 0, i64 %50
  store i8 %48, i8* %51, align 1
  br label %52

52:                                               ; preds = %45, %42, %39
  br label %53

53:                                               ; preds = %52, %32
  br label %54

54:                                               ; preds = %53
  %55 = load i32, i32* %6, align 4
  %56 = add nsw i32 %55, 1
  store i32 %56, i32* %6, align 4
  br label %14

57:                                               ; preds = %14
  %58 = load i32, i32* %6, align 4
  %59 = sub nsw i32 %58, 1
  store i32 %59, i32* %7, align 4
  br label %60

60:                                               ; preds = %70, %57
  %61 = load i32, i32* %7, align 4
  %62 = icmp sgt i32 %61, 0
  br i1 %62, label %63, label %73

63:                                               ; preds = %60
  %64 = load i32, i32* %7, align 4
  %65 = sext i32 %64 to i64
  %66 = getelementptr inbounds [100 x i8], [100 x i8]* %8, i64 0, i64 %65
  %67 = load i8, i8* %66, align 1
  %68 = sext i8 %67 to i32
  %69 = call i32 (i8*, ...) @printf(i8* getelementptr inbounds ([3 x i8], [3 x i8]* @.str.1, i64 0, i64 0), i32 %68)
  br label %70

70:                                               ; preds = %63
  %71 = load i32, i32* %7, align 4
  %72 = add nsw i32 %71, -1
  store i32 %72, i32* %7, align 4
  br label %60

73:                                               ; preds = %60
  %74 = getelementptr inbounds [100 x i8], [100 x i8]* %8, i64 0, i64 0
  %75 = load i8, i8* %74, align 16
  %76 = sext i8 %75 to i32
  %77 = call i32 (i8*, ...) @printf(i8* getelementptr inbounds ([4 x i8], [4 x i8]* @.str.2, i64 0, i64 0), i32 %76)
  ret void
}

declare dso_local i32 @printf(i8*, ...) #1

; Function Attrs: noinline nounwind uwtable
define dso_local i32 @main() #0 {
  %1 = alloca i32, align 4
  %2 = alloca i32, align 4
  %3 = alloca i32, align 4
  %4 = alloca i64, align 8
  %5 = alloca [100 x i8], align 16
  store i32 0, i32* %1, align 4
  %6 = getelementptr inbounds [100 x i8], [100 x i8]* %5, i64 0, i64 0
  %7 = call i32 (i8*, ...) @__isoc99_scanf(i8* getelementptr inbounds ([9 x i8], [9 x i8]* @.str.3, i64 0, i64 0), i32* %2, i8* %6, i32* %3)
  %8 = load i32, i32* %2, align 4
  %9 = getelementptr inbounds [100 x i8], [100 x i8]* %5, i64 0, i64 0
  %10 = call i32 @zhuan(i32 %8, i8* %9)
  %11 = sext i32 %10 to i64
  store i64 %11, i64* %4, align 8
  %12 = load i32, i32* %3, align 4
  %13 = load i64, i64* %4, align 8
  call void @huan(i32 %12, i64 %13)
  ret i32 0
}

declare dso_local i32 @__isoc99_scanf(i8*, ...) #1


!llvm.module.flags = !{!0}
!llvm.ident = !{!1}

!0 = !{i32 1, !"wchar_size", i32 4}
!1 = !{!"clang version 10.0.0-4ubuntu1 "}
